target datalayout = "e-m:e-p270:32:32-p271:32:32-p272:64:64-i64:64-i128:128-f80:128-n8:16:32:64-S128"
target triple = "x86_64-pc-linux-gnu"

%struct.engine_st = type { ptr, ptr, ptr, ptr, ptr, ptr, ptr, ptr, ptr, ptr, ptr, ptr, ptr, ptr, ptr, ptr, ptr, ptr, ptr, i32, %struct.CRYPTO_REF_COUNT, i32, %struct.crypto_ex_data_st, ptr, ptr, ptr, ptr, ptr }
%struct.CRYPTO_REF_COUNT = type { i32 }
%struct.crypto_ex_data_st = type { ptr, ptr }

@global_engine_lock = external global ptr, align 8
@engine_lock_init = external global i32, align 4
@do_engine_lock_init_ossl_ret_ = external global i32, align 4
@.str = private unnamed_addr constant [36 x i8] c"../openssl/crypto/engine/eng_list.c\00", align 1
@engine_list_head = internal global ptr null, align 8
@__func__.ENGINE_by_id = private unnamed_addr constant [13 x i8] c"ENGINE_by_id\00", align 1
@.str.1 = private unnamed_addr constant [8 x i8] c"dynamic\00", align 1
@.str.2 = private unnamed_addr constant [16 x i8] c"OPENSSL_ENGINES\00", align 1
@.str.3 = private unnamed_addr constant [3 x i8] c"ID\00", align 1
@.str.4 = private unnamed_addr constant [9 x i8] c"DIR_LOAD\00", align 1
@.str.5 = private unnamed_addr constant [2 x i8] c"2\00", align 1
@.str.6 = private unnamed_addr constant [8 x i8] c"DIR_ADD\00", align 1
@.str.7 = private unnamed_addr constant [9 x i8] c"LIST_ADD\00", align 1
@.str.8 = private unnamed_addr constant [2 x i8] c"1\00", align 1
@.str.9 = private unnamed_addr constant [5 x i8] c"LOAD\00", align 1
@.str.10 = private unnamed_addr constant [6 x i8] c"id=%s\00", align 1

; Function Attrs: inlinehint nounwind uwtable
define internal i32 @CRYPTO_UP_REF(ptr noundef %0, ptr noundef %1) #3 {
  %3 = alloca ptr, align 8
  %4 = alloca ptr, align 8
  %5 = alloca i32, align 4
  %6 = alloca i32, align 4
  store ptr %0, ptr %3, align 8, !tbaa !8
  store ptr %1, ptr %4, align 8, !tbaa !29
  %7 = load ptr, ptr %3, align 8, !tbaa !8
  %8 = getelementptr inbounds nuw %struct.CRYPTO_REF_COUNT, ptr %7, i32 0, i32 0
  store i32 1, ptr %5, align 4, !tbaa !9
  %9 = load i32, ptr %5, align 4
  %10 = atomicrmw add ptr %8, i32 %9 monotonic, align 4
  store i32 %10, ptr %6, align 4
  %11 = load i32, ptr %6, align 4, !tbaa !9
  %12 = add nsw i32 %11, 1
  %13 = load ptr, ptr %4, align 8, !tbaa !29
  store i32 %12, ptr %13, align 4, !tbaa !9
  ret i32 1
}

; Function Attrs: nounwind uwtable
define ptr @ENGINE_by_id(ptr noundef %0) #0 {
  %2 = alloca ptr, align 8
  %3 = alloca ptr, align 8
  %4 = alloca ptr, align 8
  %5 = alloca ptr, align 8
  %6 = alloca i32, align 4
  %7 = alloca ptr, align 8
  %8 = alloca i32, align 4
  store ptr %0, ptr %3, align 8, !tbaa !36
  call void @llvm.lifetime.start.p0(i64 8, ptr %4) #5
  call void @llvm.lifetime.start.p0(i64 8, ptr %5) #5
  store ptr null, ptr %5, align 8, !tbaa !36
  %9 = load ptr, ptr %3, align 8, !tbaa !36
  %10 = icmp eq ptr %9, null
  br i1 %10, label %11, label %12

11:                                               ; preds = %1
  call void @ERR_new()
  call void @ERR_set_debug(ptr noundef @.str, i32 noundef 413, ptr noundef @__func__.ENGINE_by_id)
  call void (i32, i32, ptr, ...) @ERR_set_error(i32 noundef 38, i32 noundef 786690, ptr noundef null)
  store ptr null, ptr %2, align 8
  store i32 1, ptr %6, align 4
  br label %125

12:                                               ; preds = %1
  call void @ENGINE_load_builtin_engines()
  %13 = call i32 @CRYPTO_THREAD_run_once(ptr noundef @engine_lock_init, ptr noundef @do_engine_lock_init_ossl_)
  %14 = icmp ne i32 %13, 0
  br i1 %14, label %15, label %18

15:                                               ; preds = %12
  %16 = load i32, ptr @do_engine_lock_init_ossl_ret_, align 4, !tbaa !9
  %17 = icmp ne i32 %16, 0
  br i1 %17, label %20, label %19

18:                                               ; preds = %12
  br i1 false, label %20, label %19

19:                                               ; preds = %18, %15
  call void @ERR_new()
  call void @ERR_set_debug(ptr noundef @.str, i32 noundef 420, ptr noundef @__func__.ENGINE_by_id)
  call void (i32, i32, ptr, ...) @ERR_set_error(i32 noundef 38, i32 noundef 524303, ptr noundef null)
  store ptr null, ptr %2, align 8
  store i32 1, ptr %6, align 4
  br label %125

20:                                               ; preds = %18, %15
  %21 = load ptr, ptr @global_engine_lock, align 8, !tbaa !8
  %22 = call i32 @CRYPTO_THREAD_write_lock(ptr noundef %21)
  %23 = icmp ne i32 %22, 0
  br i1 %23, label %25, label %24

24:                                               ; preds = %20
  store ptr null, ptr %2, align 8
  store i32 1, ptr %6, align 4
  br label %125

25:                                               ; preds = %20
  %26 = load ptr, ptr @engine_list_head, align 8, !tbaa !3
  store ptr %26, ptr %4, align 8, !tbaa !3
  br label %27

27:                                               ; preds = %39, %25
  %28 = load ptr, ptr %4, align 8, !tbaa !3
  %29 = icmp ne ptr %28, null
  br i1 %29, label %30, label %37

30:                                               ; preds = %27
  %31 = load ptr, ptr %3, align 8, !tbaa !36
  %32 = load ptr, ptr %4, align 8, !tbaa !3
  %33 = getelementptr inbounds nuw %struct.engine_st, ptr %32, i32 0, i32 0
  %34 = load ptr, ptr %33, align 8, !tbaa !32
  %35 = call i32 @strcmp(ptr noundef %31, ptr noundef %34) #6
  %36 = icmp ne i32 %35, 0
  br label %37

37:                                               ; preds = %30, %27
  %38 = phi i1 [ false, %27 ], [ %36, %30 ]
  br i1 %38, label %39, label %43

39:                                               ; preds = %37
  %40 = load ptr, ptr %4, align 8, !tbaa !3
  %41 = getelementptr inbounds nuw %struct.engine_st, ptr %40, i32 0, i32 24
  %42 = load ptr, ptr %41, align 8, !tbaa !24
  store ptr %42, ptr %4, align 8, !tbaa !3
  br label %27, !llvm.loop !37

43:                                               ; preds = %37
  %44 = load ptr, ptr %4, align 8, !tbaa !3
  %45 = icmp ne ptr %44, null
  br i1 %45, label %46, label %75

46:                                               ; preds = %43
  %47 = load ptr, ptr %4, align 8, !tbaa !3
  %48 = getelementptr inbounds nuw %struct.engine_st, ptr %47, i32 0, i32 19
  %49 = load i32, ptr %48, align 8, !tbaa !38
  %50 = and i32 %49, 4
  %51 = icmp ne i32 %50, 0
  br i1 %51, label %52, label %62

52:                                               ; preds = %46
  call void @llvm.lifetime.start.p0(i64 8, ptr %7) #5
  %53 = call ptr @ENGINE_new()
  store ptr %53, ptr %7, align 8, !tbaa !3
  %54 = load ptr, ptr %7, align 8, !tbaa !3
  %55 = icmp eq ptr %54, null
  br i1 %55, label %56, label %57

56:                                               ; preds = %52
  store ptr null, ptr %4, align 8, !tbaa !3
  br label %61

57:                                               ; preds = %52
  %58 = load ptr, ptr %7, align 8, !tbaa !3
  %59 = load ptr, ptr %4, align 8, !tbaa !3
  call void @engine_cpy(ptr noundef %58, ptr noundef %59)
  %60 = load ptr, ptr %7, align 8, !tbaa !3
  store ptr %60, ptr %4, align 8, !tbaa !3
  br label %61

61:                                               ; preds = %57, %56
  call void @llvm.lifetime.end.p0(i64 8, ptr %7) #5
  br label %74

62:                                               ; preds = %46
  call void @llvm.lifetime.start.p0(i64 4, ptr %8) #5
  %63 = load ptr, ptr %4, align 8, !tbaa !3
  %64 = getelementptr inbounds nuw %struct.engine_st, ptr %63, i32 0, i32 20
  %65 = call i32 @CRYPTO_UP_REF(ptr noundef %64, ptr noundef %8)
  %66 = icmp ne i32 %65, 0
  br i1 %66, label %70, label %67

67:                                               ; preds = %62
  %68 = load ptr, ptr @global_engine_lock, align 8, !tbaa !8
  %69 = call i32 @CRYPTO_THREAD_unlock(ptr noundef %68)
  call void @ERR_new()
  call void @ERR_set_debug(ptr noundef @.str, i32 noundef 448, ptr noundef @__func__.ENGINE_by_id)
  call void (i32, i32, ptr, ...) @ERR_set_error(i32 noundef 38, i32 noundef 524303, ptr noundef null)
  store ptr null, ptr %2, align 8
  store i32 1, ptr %6, align 4
  br label %71

70:                                               ; preds = %62
  store i32 0, ptr %6, align 4
  br label %71

71:                                               ; preds = %70, %67
  call void @llvm.lifetime.end.p0(i64 4, ptr %8) #5
  %72 = load i32, ptr %6, align 4
  switch i32 %72, label %125 [
    i32 0, label %73
  ]

73:                                               ; preds = %71
  br label %74

74:                                               ; preds = %73, %61
  br label %75

75:                                               ; preds = %74, %43
  %76 = load ptr, ptr @global_engine_lock, align 8, !tbaa !8
  %77 = call i32 @CRYPTO_THREAD_unlock(ptr noundef %76)
  %78 = load ptr, ptr %4, align 8, !tbaa !3
  %79 = icmp ne ptr %78, null
  br i1 %79, label %80, label %82

80:                                               ; preds = %75
  %81 = load ptr, ptr %4, align 8, !tbaa !3
  store ptr %81, ptr %2, align 8
  store i32 1, ptr %6, align 4
  br label %125

82:                                               ; preds = %75
  %83 = load ptr, ptr %3, align 8, !tbaa !36
  %84 = call i32 @strcmp(ptr noundef %83, ptr noundef @.str.1) #6
  %85 = icmp ne i32 %84, 0
  br i1 %85, label %86, label %120

86:                                               ; preds = %82
  %87 = call ptr @ossl_safe_getenv(ptr noundef @.str.2)
  store ptr %87, ptr %5, align 8, !tbaa !36
  %88 = icmp eq ptr %87, null
  br i1 %88, label %89, label %91

89:                                               ; preds = %86
  %90 = call ptr @ossl_get_enginesdir()
  store ptr %90, ptr %5, align 8, !tbaa !36
  br label %91

91:                                               ; preds = %89, %86
  %92 = call ptr @ENGINE_by_id(ptr noundef @.str.1)
  store ptr %92, ptr %4, align 8, !tbaa !3
  %93 = load ptr, ptr %4, align 8, !tbaa !3
  %94 = icmp ne ptr %93, null
  br i1 %94, label %95, label %117

95:                                               ; preds = %91
  %96 = load ptr, ptr %4, align 8, !tbaa !3
  %97 = load ptr, ptr %3, align 8, !tbaa !36
  %98 = call i32 @ENGINE_ctrl_cmd_string(ptr noundef %96, ptr noundef @.str.3, ptr noundef %97, i32 noundef 0)
  %99 = icmp ne i32 %98, 0
  br i1 %99, label %100, label %117

100:                                              ; preds = %95
  %101 = load ptr, ptr %4, align 8, !tbaa !3
  %102 = call i32 @ENGINE_ctrl_cmd_string(ptr noundef %101, ptr noundef @.str.4, ptr noundef @.str.5, i32 noundef 0)
  %103 = icmp ne i32 %102, 0
  br i1 %103, label %104, label %117

104:                                              ; preds = %100
  %105 = load ptr, ptr %4, align 8, !tbaa !3
  %106 = load ptr, ptr %5, align 8, !tbaa !36
  %107 = call i32 @ENGINE_ctrl_cmd_string(ptr noundef %105, ptr noundef @.str.6, ptr noundef %106, i32 noundef 0)
  %108 = icmp ne i32 %107, 0
  br i1 %108, label %109, label %117

109:                                              ; preds = %104
  %110 = load ptr, ptr %4, align 8, !tbaa !3
  %111 = call i32 @ENGINE_ctrl_cmd_string(ptr noundef %110, ptr noundef @.str.7, ptr noundef @.str.8, i32 noundef 0)
  %112 = icmp ne i32 %111, 0
  br i1 %112, label %113, label %117

113:                                              ; preds = %109
  %114 = load ptr, ptr %4, align 8, !tbaa !3
  %115 = call i32 @ENGINE_ctrl_cmd_string(ptr noundef %114, ptr noundef @.str.9, ptr noundef null, i32 noundef 0)
  %116 = icmp ne i32 %115, 0
  br i1 %116, label %118, label %117

117:                                              ; preds = %113, %109, %104, %100, %95, %91
  br label %121

118:                                              ; preds = %113
  %119 = load ptr, ptr %4, align 8, !tbaa !3
  store ptr %119, ptr %2, align 8
  store i32 1, ptr %6, align 4
  br label %125

120:                                              ; preds = %82
  br label %121

121:                                              ; preds = %120, %117
  %122 = load ptr, ptr %4, align 8, !tbaa !3
  %123 = call i32 @ENGINE_free(ptr noundef %122)
  call void @ERR_new()
  call void @ERR_set_debug(ptr noundef @.str, i32 noundef 475, ptr noundef @__func__.ENGINE_by_id)
  %124 = load ptr, ptr %3, align 8, !tbaa !36
  call void (i32, i32, ptr, ...) @ERR_set_error(i32 noundef 38, i32 noundef 116, ptr noundef @.str.10, ptr noundef %124)
  store ptr null, ptr %2, align 8
  store i32 1, ptr %6, align 4
  br label %125

125:                                              ; preds = %121, %118, %80, %71, %24, %19, %11
  call void @llvm.lifetime.end.p0(i64 8, ptr %5) #5
  call void @llvm.lifetime.end.p0(i64 8, ptr %4) #5
  %126 = load ptr, ptr %2, align 8
  ret ptr %126
}