; Function Attrs: nounwind uwtable
define ptr @ENGINE_by_id(ptr noundef %0) local_unnamed_addr #0 {
  %2 = icmp eq ptr %0, null
  br i1 %2, label %3, label %4

3:                                                ; preds = %1
  tail call void @ERR_new() #4
  tail call void @ERR_set_debug(ptr noundef nonnull @.str, i32 noundef 413, ptr noundef nonnull @__func__.ENGINE_by_id) #4
  tail call void (i32, i32, ptr, ...) @ERR_set_error(i32 noundef 38, i32 noundef 786690, ptr noundef null) #4
  br label %51

4:                                                ; preds = %1
  tail call void @ENGINE_load_builtin_engines() #4
  %5 = tail call i32 @CRYPTO_THREAD_run_once(ptr noundef nonnull @engine_lock_init, ptr noundef nonnull @do_engine_lock_init_ossl_) #4
  %6 = icmp ne i32 %5, 0
  %7 = load i32, ptr @do_engine_lock_init_ossl_ret_, align 4
  %8 = icmp ne i32 %7, 0
  %or.cond = select i1 %6, i1 %8, i1 false
  br i1 %or.cond, label %10, label %9

9:                                                ; preds = %4
  tail call void @ERR_new() #4
  tail call void @ERR_set_debug(ptr noundef nonnull @.str, i32 noundef 420, ptr noundef nonnull @__func__.ENGINE_by_id) #4
  tail call void (i32, i32, ptr, ...) @ERR_set_error(i32 noundef 38, i32 noundef 524303, ptr noundef null) #4
  br label %51

10:                                               ; preds = %4
  %11 = load ptr, ptr @global_engine_lock, align 8, !tbaa !21
  %12 = tail call i32 @CRYPTO_THREAD_write_lock(ptr noundef %11) #4
  %.not = icmp eq i32 %12, 0
  br i1 %.not, label %51, label %.preheader

.preheader:                                       ; preds = %10
  %.03051 = load ptr, ptr @engine_list_head, align 8, !tbaa !22
  %.not3652 = icmp eq ptr %.03051, null
  br i1 %.not3652, label %.loopexit, label %.lr.ph

.lr.ph:                                           ; preds = %.preheader, %15
  %.03053 = phi ptr [ %.030, %15 ], [ %.03051, %.preheader ]
  %13 = load ptr, ptr %.03053, align 8, !tbaa !29
  %14 = tail call i32 @strcmp(ptr noundef nonnull dereferenceable(1) %0, ptr noundef nonnull dereferenceable(1) %13) #5
  %.not37 = icmp eq i32 %14, 0
  br i1 %.not37, label %.critedge, label %15

15:                                               ; preds = %.lr.ph
  %16 = getelementptr inbounds nuw i8, ptr %.03053, i64 192
  %.030 = load ptr, ptr %16, align 8, !tbaa !22
  %.not36 = icmp eq ptr %.030, null
  br i1 %.not36, label %.loopexit, label %.lr.ph, !llvm.loop !33

.critedge:                                        ; preds = %.lr.ph
  %17 = getelementptr inbounds nuw i8, ptr %.03053, i64 152
  %18 = load i32, ptr %17, align 8, !tbaa !34
  %19 = and i32 %18, 4
  %.not38 = icmp eq i32 %19, 0
  br i1 %.not38, label %24, label %20

20:                                               ; preds = %.critedge
  %21 = tail call ptr @ENGINE_new() #4
  %22 = icmp eq ptr %21, null
  br i1 %22, label %.loopexit, label %23

23:                                               ; preds = %20
  tail call fastcc void @engine_cpy(ptr noundef %21, ptr noundef %.03053)
  br label %.critedge47

24:                                               ; preds = %.critedge
  %25 = getelementptr inbounds nuw i8, ptr %.03053, i64 156
  %26 = atomicrmw add ptr %25, i32 1 monotonic, align 4
  br label %.critedge47

.critedge47:                                      ; preds = %23, %24
  %.131 = phi ptr [ %.03053, %24 ], [ %21, %23 ]
  %27 = load ptr, ptr @global_engine_lock, align 8, !tbaa !21
  %28 = tail call i32 @CRYPTO_THREAD_unlock(ptr noundef %27) #4
  br label %51

.loopexit:                                        ; preds = %15, %.preheader, %20
  %29 = load ptr, ptr @global_engine_lock, align 8, !tbaa !21
  %30 = tail call i32 @CRYPTO_THREAD_unlock(ptr noundef %29) #4
  %31 = tail call i32 @strcmp(ptr noundef nonnull dereferenceable(1) %0, ptr noundef nonnull dereferenceable(8) @.str.1) #5
  %.not40 = icmp eq i32 %31, 0
  br i1 %.not40, label %49, label %32

32:                                               ; preds = %.loopexit
  %33 = tail call ptr @ossl_safe_getenv(ptr noundef nonnull @.str.2) #4
  %34 = icmp eq ptr %33, null
  br i1 %34, label %35, label %37

35:                                               ; preds = %32
  %36 = tail call ptr @ossl_get_enginesdir() #4
  br label %37

37:                                               ; preds = %35, %32
  %.029 = phi ptr [ %36, %35 ], [ %33, %32 ]
  %38 = tail call ptr @ENGINE_by_id(ptr noundef nonnull @.str.1)
  %.not41 = icmp eq ptr %38, null
  br i1 %.not41, label %49, label %39

39:                                               ; preds = %37
  %40 = tail call i32 @ENGINE_ctrl_cmd_string(ptr noundef nonnull %38, ptr noundef nonnull @.str.3, ptr noundef nonnull %0, i32 noundef 0) #4
  %.not42 = icmp eq i32 %40, 0
  br i1 %.not42, label %49, label %41

41:                                               ; preds = %39
  %42 = tail call i32 @ENGINE_ctrl_cmd_string(ptr noundef nonnull %38, ptr noundef nonnull @.str.4, ptr noundef nonnull @.str.5, i32 noundef 0) #4
  %.not43 = icmp eq i32 %42, 0
  br i1 %.not43, label %49, label %43

43:                                               ; preds = %41
  %44 = tail call i32 @ENGINE_ctrl_cmd_string(ptr noundef nonnull %38, ptr noundef nonnull @.str.6, ptr noundef %.029, i32 noundef 0) #4
  %.not44 = icmp eq i32 %44, 0
  br i1 %.not44, label %49, label %45

45:                                               ; preds = %43
  %46 = tail call i32 @ENGINE_ctrl_cmd_string(ptr noundef nonnull %38, ptr noundef nonnull @.str.7, ptr noundef nonnull @.str.8, i32 noundef 0) #4
  %.not45 = icmp eq i32 %46, 0
  br i1 %.not45, label %49, label %47

47:                                               ; preds = %45
  %48 = tail call i32 @ENGINE_ctrl_cmd_string(ptr noundef nonnull %38, ptr noundef nonnull @.str.9, ptr noundef null, i32 noundef 0) #4
  %.not46 = icmp eq i32 %48, 0
  br i1 %.not46, label %49, label %51

49:                                               ; preds = %.loopexit, %37, %39, %41, %43, %45, %47
  %.3 = phi ptr [ %38, %47 ], [ %38, %45 ], [ %38, %43 ], [ %38, %41 ], [ %38, %39 ], [ null, %37 ], [ null, %.loopexit ]
  %50 = tail call i32 @ENGINE_free(ptr noundef %.3) #4
  tail call void @ERR_new() #4
  tail call void @ERR_set_debug(ptr noundef nonnull @.str, i32 noundef 475, ptr noundef nonnull @__func__.ENGINE_by_id) #4
  tail call void (i32, i32, ptr, ...) @ERR_set_error(i32 noundef 38, i32 noundef 116, ptr noundef nonnull @.str.10, ptr noundef nonnull %0) #4
  br label %51

51:                                               ; preds = %.critedge47, %47, %10, %49, %9, %3
  %.0 = phi ptr [ null, %3 ], [ null, %49 ], [ null, %9 ], [ null, %10 ], [ %.131, %.critedge47 ], [ %38, %47 ]
  ret ptr %.0
}